target datalayout = "e-m:e-p270:32:32-p271:32:32-p272:64:64-i64:64-i128:128-f80:128-n8:16:32:64-S128"
target triple = "x86_64-pc-linux-gnu"

%struct.TupleTableSlotOps = type { i64, ptr, ptr, ptr, ptr, ptr, ptr, ptr, ptr, ptr, ptr, ptr, ptr }
%struct.CteScanState = type { %struct.ScanState, i32, i32, ptr, ptr, ptr, i8 }
%struct.ScanState = type { %struct.PlanState, ptr, ptr, ptr }
%struct.PlanState = type { i32, ptr, ptr, ptr, ptr, ptr, ptr, ptr, ptr, ptr, ptr, ptr, ptr, ptr, ptr, ptr, ptr, ptr, i8, ptr, ptr, ptr, ptr, ptr, i8, i8, i8, i8, i8, i8, i8, i8 }
%struct.EState = type { i32, i32, ptr, ptr, ptr, i32, ptr, ptr, ptr, ptr, ptr, ptr, ptr, ptr, ptr, ptr, i32, ptr, ptr, ptr, ptr, ptr, ptr, ptr, ptr, ptr, ptr, i64, i64, i32, i32, i8, ptr, ptr, ptr, ptr, ptr, i8, i32, i32, ptr, i32, ptr, ptr, ptr, ptr }
%struct.CteScan = type { %struct.Scan, i32, i32 }
%struct.Scan = type { %struct.Plan, i32 }
%struct.Plan = type { i32, i32, double, double, double, i32, i8, i8, i8, i32, ptr, ptr, ptr, ptr, ptr, ptr, ptr }
%struct.ParamExecData = type { ptr, i64, i8 }
%struct.Node = type { i32 }
%struct.List = type { i32, i32, i32, ptr, [0 x %union.ListCell] }
%union.ListCell = type { ptr }

@work_mem = external global i32, align 4
@TTSOpsMinimalTuple = external constant %struct.TupleTableSlotOps, align 8

; Function Attrs: inlinehint nounwind uwtable
define internal ptr @list_nth_cell(ptr noundef %0, i32 noundef %1) #2 {
  %3 = alloca ptr, align 8
  %4 = alloca i32, align 4
  store ptr %0, ptr %3, align 8
  store i32 %1, ptr %4, align 4
  %5 = load ptr, ptr %3, align 8
  %6 = getelementptr inbounds nuw %struct.List, ptr %5, i32 0, i32 3
  %7 = load ptr, ptr %6, align 8
  %8 = load i32, ptr %4, align 4
  %9 = sext i32 %8 to i64
  %10 = getelementptr inbounds %union.ListCell, ptr %7, i64 %9
  ret ptr %10
}

; Function Attrs: inlinehint nounwind uwtable
define internal i64 @PointerGetDatum(ptr noundef %0) #2 {
  %2 = alloca ptr, align 8
  store ptr %0, ptr %2, align 8
  %3 = load ptr, ptr %2, align 8
  %4 = ptrtoint ptr %3 to i64
  ret i64 %4
}

; Function Attrs: inlinehint nounwind uwtable
define internal ptr @DatumGetPointer(i64 noundef %0) #2 {
  %2 = alloca i64, align 8
  store i64 %0, ptr %2, align 8
  %3 = load i64, ptr %2, align 8
  %4 = inttoptr i64 %3 to ptr
  ret ptr %4
}

; Function Attrs: inlinehint nounwind uwtable
define internal ptr @list_nth(ptr noundef %0, i32 noundef %1) #2 {
  %3 = alloca ptr, align 8
  %4 = alloca i32, align 4
  store ptr %0, ptr %3, align 8
  store i32 %1, ptr %4, align 4
  %5 = load ptr, ptr %3, align 8
  %6 = load i32, ptr %4, align 4
  %7 = call ptr @list_nth_cell(ptr noundef %5, i32 noundef %6)
  %8 = load ptr, ptr %7, align 8
  ret ptr %8
}

; Function Attrs: inlinehint nounwind uwtable
define internal ptr @newNode(i64 noundef %0, i32 noundef %1) #2 {
  %3 = alloca i64, align 8
  %4 = alloca i32, align 4
  %5 = alloca ptr, align 8
  store i64 %0, ptr %3, align 8
  store i32 %1, ptr %4, align 4
  call void @llvm.lifetime.start.p0(i64 8, ptr %5) #4
  %6 = load i64, ptr %3, align 8
  %7 = call ptr @palloc0(i64 noundef %6)
  store ptr %7, ptr %5, align 8
  %8 = load i32, ptr %4, align 4
  %9 = load ptr, ptr %5, align 8
  %10 = getelementptr inbounds nuw %struct.Node, ptr %9, i32 0, i32 0
  store i32 %8, ptr %10, align 4
  %11 = load ptr, ptr %5, align 8
  call void @llvm.lifetime.end.p0(i64 8, ptr %5) #4
  ret ptr %11
}

; Function Attrs: nounwind uwtable
define dso_local ptr @ExecInitCteScan(ptr noundef %0, ptr noundef %1, i32 noundef %2) #0 {
  %4 = alloca ptr, align 8
  %5 = alloca ptr, align 8
  %6 = alloca i32, align 4
  %7 = alloca ptr, align 8
  %8 = alloca ptr, align 8
  store ptr %0, ptr %4, align 8
  store ptr %1, ptr %5, align 8
  store i32 %2, ptr %6, align 4
  call void @llvm.lifetime.start.p0(i64 8, ptr %7) #4
  call void @llvm.lifetime.start.p0(i64 8, ptr %8) #4
  %9 = load i32, ptr %6, align 4
  %10 = or i32 %9, 4
  store i32 %10, ptr %6, align 4
  %11 = call ptr @newNode(i64 noundef 264, i32 noundef 414)
  store ptr %11, ptr %7, align 8
  %12 = load ptr, ptr %4, align 8
  %13 = load ptr, ptr %7, align 8
  %14 = getelementptr inbounds nuw %struct.CteScanState, ptr %13, i32 0, i32 0
  %15 = getelementptr inbounds nuw %struct.ScanState, ptr %14, i32 0, i32 0
  %16 = getelementptr inbounds nuw %struct.PlanState, ptr %15, i32 0, i32 1
  store ptr %12, ptr %16, align 8
  %17 = load ptr, ptr %5, align 8
  %18 = load ptr, ptr %7, align 8
  %19 = getelementptr inbounds nuw %struct.CteScanState, ptr %18, i32 0, i32 0
  %20 = getelementptr inbounds nuw %struct.ScanState, ptr %19, i32 0, i32 0
  %21 = getelementptr inbounds nuw %struct.PlanState, ptr %20, i32 0, i32 2
  store ptr %17, ptr %21, align 8
  %22 = load ptr, ptr %7, align 8
  %23 = getelementptr inbounds nuw %struct.CteScanState, ptr %22, i32 0, i32 0
  %24 = getelementptr inbounds nuw %struct.ScanState, ptr %23, i32 0, i32 0
  %25 = getelementptr inbounds nuw %struct.PlanState, ptr %24, i32 0, i32 3
  store ptr @ExecCteScan, ptr %25, align 8
  %26 = load i32, ptr %6, align 4
  %27 = load ptr, ptr %7, align 8
  %28 = getelementptr inbounds nuw %struct.CteScanState, ptr %27, i32 0, i32 1
  store i32 %26, ptr %28, align 8
  %29 = load ptr, ptr %7, align 8
  %30 = getelementptr inbounds nuw %struct.CteScanState, ptr %29, i32 0, i32 5
  store ptr null, ptr %30, align 8
  %31 = load ptr, ptr %7, align 8
  %32 = getelementptr inbounds nuw %struct.CteScanState, ptr %31, i32 0, i32 6
  store i8 0, ptr %32, align 8
  %33 = load ptr, ptr %5, align 8
  %34 = getelementptr inbounds nuw %struct.EState, ptr %33, i32 0, i32 33
  %35 = load ptr, ptr %34, align 8
  %36 = load ptr, ptr %4, align 8
  %37 = getelementptr inbounds nuw %struct.CteScan, ptr %36, i32 0, i32 1
  %38 = load i32, ptr %37, align 8
  %39 = sub i32 %38, 1
  %40 = call ptr @list_nth(ptr noundef %35, i32 noundef %39)
  %41 = load ptr, ptr %7, align 8
  %42 = getelementptr inbounds nuw %struct.CteScanState, ptr %41, i32 0, i32 3
  store ptr %40, ptr %42, align 8
  %43 = load ptr, ptr %5, align 8
  %44 = getelementptr inbounds nuw %struct.EState, ptr %43, i32 0, i32 23
  %45 = load ptr, ptr %44, align 8
  %46 = load ptr, ptr %4, align 8
  %47 = getelementptr inbounds nuw %struct.CteScan, ptr %46, i32 0, i32 2
  %48 = load i32, ptr %47, align 4
  %49 = sext i32 %48 to i64
  %50 = getelementptr inbounds %struct.ParamExecData, ptr %45, i64 %49
  store ptr %50, ptr %8, align 8
  %51 = load ptr, ptr %8, align 8
  %52 = getelementptr inbounds nuw %struct.ParamExecData, ptr %51, i32 0, i32 1
  %53 = load i64, ptr %52, align 8
  %54 = call ptr @DatumGetPointer(i64 noundef %53)
  %55 = load ptr, ptr %7, align 8
  %56 = getelementptr inbounds nuw %struct.CteScanState, ptr %55, i32 0, i32 4
  store ptr %54, ptr %56, align 8
  %57 = load ptr, ptr %7, align 8
  %58 = getelementptr inbounds nuw %struct.CteScanState, ptr %57, i32 0, i32 4
  %59 = load ptr, ptr %58, align 8
  %60 = icmp eq ptr %59, null
  br i1 %60, label %61, label %81

61:                                               ; preds = %3
  %62 = load ptr, ptr %7, align 8
  %63 = call i64 @PointerGetDatum(ptr noundef %62)
  %64 = load ptr, ptr %8, align 8
  %65 = getelementptr inbounds nuw %struct.ParamExecData, ptr %64, i32 0, i32 1
  store i64 %63, ptr %65, align 8
  %66 = load ptr, ptr %7, align 8
  %67 = load ptr, ptr %7, align 8
  %68 = getelementptr inbounds nuw %struct.CteScanState, ptr %67, i32 0, i32 4
  store ptr %66, ptr %68, align 8
  %69 = load i32, ptr @work_mem, align 4
  %70 = call ptr @tuplestore_begin_heap(i1 noundef zeroext true, i1 noundef zeroext false, i32 noundef %69)
  %71 = load ptr, ptr %7, align 8
  %72 = getelementptr inbounds nuw %struct.CteScanState, ptr %71, i32 0, i32 5
  store ptr %70, ptr %72, align 8
  %73 = load ptr, ptr %7, align 8
  %74 = getelementptr inbounds nuw %struct.CteScanState, ptr %73, i32 0, i32 5
  %75 = load ptr, ptr %74, align 8
  %76 = load ptr, ptr %7, align 8
  %77 = getelementptr inbounds nuw %struct.CteScanState, ptr %76, i32 0, i32 1
  %78 = load i32, ptr %77, align 8
  call void @tuplestore_set_eflags(ptr noundef %75, i32 noundef %78)
  %79 = load ptr, ptr %7, align 8
  %80 = getelementptr inbounds nuw %struct.CteScanState, ptr %79, i32 0, i32 2
  store i32 0, ptr %80, align 4
  br label %106

81:                                               ; preds = %3
  %82 = load ptr, ptr %7, align 8
  %83 = getelementptr inbounds nuw %struct.CteScanState, ptr %82, i32 0, i32 4
  %84 = load ptr, ptr %83, align 8
  %85 = getelementptr inbounds nuw %struct.CteScanState, ptr %84, i32 0, i32 5
  %86 = load ptr, ptr %85, align 8
  %87 = load ptr, ptr %7, align 8
  %88 = getelementptr inbounds nuw %struct.CteScanState, ptr %87, i32 0, i32 1
  %89 = load i32, ptr %88, align 8
  %90 = call i32 @tuplestore_alloc_read_pointer(ptr noundef %86, i32 noundef %89)
  %91 = load ptr, ptr %7, align 8
  %92 = getelementptr inbounds nuw %struct.CteScanState, ptr %91, i32 0, i32 2
  store i32 %90, ptr %92, align 4
  %93 = load ptr, ptr %7, align 8
  %94 = getelementptr inbounds nuw %struct.CteScanState, ptr %93, i32 0, i32 4
  %95 = load ptr, ptr %94, align 8
  %96 = getelementptr inbounds nuw %struct.CteScanState, ptr %95, i32 0, i32 5
  %97 = load ptr, ptr %96, align 8
  %98 = load ptr, ptr %7, align 8
  %99 = getelementptr inbounds nuw %struct.CteScanState, ptr %98, i32 0, i32 2
  %100 = load i32, ptr %99, align 4
  call void @tuplestore_select_read_pointer(ptr noundef %97, i32 noundef %100)
  %101 = load ptr, ptr %7, align 8
  %102 = getelementptr inbounds nuw %struct.CteScanState, ptr %101, i32 0, i32 4
  %103 = load ptr, ptr %102, align 8
  %104 = getelementptr inbounds nuw %struct.CteScanState, ptr %103, i32 0, i32 5
  %105 = load ptr, ptr %104, align 8
  call void @tuplestore_rescan(ptr noundef %105)
  br label %106

106:                                              ; preds = %81, %61
  %107 = load ptr, ptr %5, align 8
  %108 = load ptr, ptr %7, align 8
  %109 = getelementptr inbounds nuw %struct.CteScanState, ptr %108, i32 0, i32 0
  %110 = getelementptr inbounds nuw %struct.ScanState, ptr %109, i32 0, i32 0
  call void @ExecAssignExprContext(ptr noundef %107, ptr noundef %110)
  %111 = load ptr, ptr %5, align 8
  %112 = load ptr, ptr %7, align 8
  %113 = getelementptr inbounds nuw %struct.CteScanState, ptr %112, i32 0, i32 0
  %114 = load ptr, ptr %7, align 8
  %115 = getelementptr inbounds nuw %struct.CteScanState, ptr %114, i32 0, i32 3
  %116 = load ptr, ptr %115, align 8
  %117 = call ptr @ExecGetResultType(ptr noundef %116)
  call void @ExecInitScanTupleSlot(ptr noundef %111, ptr noundef %113, ptr noundef %117, ptr noundef @TTSOpsMinimalTuple)
  %118 = load ptr, ptr %7, align 8
  %119 = getelementptr inbounds nuw %struct.CteScanState, ptr %118, i32 0, i32 0
  %120 = getelementptr inbounds nuw %struct.ScanState, ptr %119, i32 0, i32 0
  call void @ExecInitResultTypeTL(ptr noundef %120)
  %121 = load ptr, ptr %7, align 8
  %122 = getelementptr inbounds nuw %struct.CteScanState, ptr %121, i32 0, i32 0
  call void @ExecAssignScanProjectionInfo(ptr noundef %122)
  %123 = load ptr, ptr %4, align 8
  %124 = getelementptr inbounds nuw %struct.CteScan, ptr %123, i32 0, i32 0
  %125 = getelementptr inbounds nuw %struct.Scan, ptr %124, i32 0, i32 0
  %126 = getelementptr inbounds nuw %struct.Plan, ptr %125, i32 0, i32 11
  %127 = load ptr, ptr %126, align 8
  %128 = load ptr, ptr %7, align 8
  %129 = call ptr @ExecInitQual(ptr noundef %127, ptr noundef %128)
  %130 = load ptr, ptr %7, align 8
  %131 = getelementptr inbounds nuw %struct.CteScanState, ptr %130, i32 0, i32 0
  %132 = getelementptr inbounds nuw %struct.ScanState, ptr %131, i32 0, i32 0
  %133 = getelementptr inbounds nuw %struct.PlanState, ptr %132, i32 0, i32 8
  store ptr %129, ptr %133, align 8
  %134 = load ptr, ptr %7, align 8
  call void @llvm.lifetime.end.p0(i64 8, ptr %8) #4
  call void @llvm.lifetime.end.p0(i64 8, ptr %7) #4
  ret ptr %134
}