; Function Attrs: nounwind uwtable
define dso_local noundef ptr @ExecInitCteScan(ptr noundef %0, ptr noundef %1, i32 noundef %2) local_unnamed_addr #0 {
  %4 = or i32 %2, 4
  %5 = tail call noundef ptr @palloc0(i64 noundef 264) #3
  store i32 414, ptr %5, align 4
  %6 = getelementptr inbounds nuw i8, ptr %5, i64 8
  store ptr %0, ptr %6, align 8
  %7 = getelementptr inbounds nuw i8, ptr %5, i64 16
  store ptr %1, ptr %7, align 8
  %8 = getelementptr inbounds nuw i8, ptr %5, i64 24
  store ptr @ExecCteScan, ptr %8, align 8
  %9 = getelementptr inbounds nuw i8, ptr %5, i64 224
  store i32 %4, ptr %9, align 8
  %10 = getelementptr inbounds nuw i8, ptr %5, i64 248
  store ptr null, ptr %10, align 8
  %11 = getelementptr inbounds nuw i8, ptr %5, i64 256
  store i8 0, ptr %11, align 8
  %12 = getelementptr inbounds nuw i8, ptr %1, i64 248
  %13 = load ptr, ptr %12, align 8
  %14 = getelementptr inbounds nuw i8, ptr %0, i64 112
  %15 = load i32, ptr %14, align 8
  %16 = add i32 %15, -1
  %17 = getelementptr i8, ptr %13, i64 16
  %.val = load ptr, ptr %17, align 8
  %18 = sext i32 %16 to i64
  %19 = getelementptr inbounds %union.ListCell, ptr %.val, i64 %18
  %20 = load ptr, ptr %19, align 8
  %21 = getelementptr inbounds nuw i8, ptr %5, i64 232
  store ptr %20, ptr %21, align 8
  %22 = getelementptr inbounds nuw i8, ptr %1, i64 176
  %23 = load ptr, ptr %22, align 8
  %24 = getelementptr inbounds nuw i8, ptr %0, i64 116
  %25 = load i32, ptr %24, align 4
  %26 = sext i32 %25 to i64
  %27 = getelementptr inbounds %struct.ParamExecData, ptr %23, i64 %26, i32 1
  %28 = load i64, ptr %27, align 8
  %29 = inttoptr i64 %28 to ptr
  %30 = getelementptr inbounds nuw i8, ptr %5, i64 240
  store ptr %29, ptr %30, align 8
  %31 = icmp eq i64 %28, 0
  br i1 %31, label %32, label %38

32:                                               ; preds = %3
  %33 = ptrtoint ptr %5 to i64
  store i64 %33, ptr %27, align 8
  store ptr %5, ptr %30, align 8
  %34 = load i32, ptr @work_mem, align 4
  %35 = tail call ptr @tuplestore_begin_heap(i1 noundef zeroext true, i1 noundef zeroext false, i32 noundef %34) #3
  store ptr %35, ptr %10, align 8
  %36 = load i32, ptr %9, align 8
  tail call void @tuplestore_set_eflags(ptr noundef %35, i32 noundef %36) #3
  %37 = getelementptr inbounds nuw i8, ptr %5, i64 228
  store i32 0, ptr %37, align 4
  br label %49

38:                                               ; preds = %3
  %39 = getelementptr inbounds nuw i8, ptr %29, i64 248
  %40 = load ptr, ptr %39, align 8
  %41 = tail call i32 @tuplestore_alloc_read_pointer(ptr noundef %40, i32 noundef %4) #3
  %42 = getelementptr inbounds nuw i8, ptr %5, i64 228
  store i32 %41, ptr %42, align 4
  %43 = load ptr, ptr %30, align 8
  %44 = getelementptr inbounds nuw i8, ptr %43, i64 248
  %45 = load ptr, ptr %44, align 8
  tail call void @tuplestore_select_read_pointer(ptr noundef %45, i32 noundef %41) #3
  %46 = load ptr, ptr %30, align 8
  %47 = getelementptr inbounds nuw i8, ptr %46, i64 248
  %48 = load ptr, ptr %47, align 8
  tail call void @tuplestore_rescan(ptr noundef %48) #3
  br label %49

49:                                               ; preds = %38, %32
  tail call void @ExecAssignExprContext(ptr noundef nonnull %1, ptr noundef nonnull %5) #3
  %50 = load ptr, ptr %21, align 8
  %51 = tail call ptr @ExecGetResultType(ptr noundef %50) #3
  tail call void @ExecInitScanTupleSlot(ptr noundef nonnull %1, ptr noundef nonnull %5, ptr noundef %51, ptr noundef nonnull @TTSOpsMinimalTuple) #3
  tail call void @ExecInitResultTypeTL(ptr noundef nonnull %5) #3
  tail call void @ExecAssignScanProjectionInfo(ptr noundef nonnull %5) #3
  %52 = getelementptr inbounds nuw i8, ptr %0, i64 56
  %53 = load ptr, ptr %52, align 8
  %54 = tail call ptr @ExecInitQual(ptr noundef %53, ptr noundef nonnull %5) #3
  %55 = getelementptr inbounds nuw i8, ptr %5, i64 64
  store ptr %54, ptr %55, align 8
  ret ptr %5
}